target datalayout = "e-m:e-p270:32:32-p271:32:32-p272:64:64-i64:64-i128:128-f80:128-n8:16:32:64-S128"
target triple = "x86_64-pc-linux-gnu"

%"class.cmsys::Directory" = type { ptr }
%"class.cmsys::DirectoryInternals" = type { %"class.std::vector", %"class.std::__cxx11::basic_string" }
%"class.std::vector" = type { %"struct.std::_Vector_base" }
%"struct.std::_Vector_base" = type { %"struct.std::_Vector_base<cmsys::DirectoryInternals::FileData, std::allocator<cmsys::DirectoryInternals::FileData>>::_Vector_impl" }
%"struct.std::_Vector_base<cmsys::DirectoryInternals::FileData, std::allocator<cmsys::DirectoryInternals::FileData>>::_Vector_impl" = type { %"struct.std::_Vector_base<cmsys::DirectoryInternals::FileData, std::allocator<cmsys::DirectoryInternals::FileData>>::_Vector_impl_data" }
%"struct.std::_Vector_base<cmsys::DirectoryInternals::FileData, std::allocator<cmsys::DirectoryInternals::FileData>>::_Vector_impl_data" = type { ptr, ptr, ptr }
%"class.std::__cxx11::basic_string" = type { %"struct.std::__cxx11::basic_string<char>::_Alloc_hider", i64, %union.anon }
%"struct.std::__cxx11::basic_string<char>::_Alloc_hider" = type { ptr }
%union.anon = type { i64, [8 x i8] }

; Function Attrs: mustprogress nounwind uwtable
define linkonce_odr dso_local noundef i64 @_ZNKSt6vectorIN5cmsys18DirectoryInternals8FileDataESaIS2_EE4sizeEv(ptr noundef nonnull align 8 dereferenceable(24) %0) #7 comdat align 2 {
  %2 = alloca ptr, align 8
  store ptr %0, ptr %2, align 8, !tbaa !15
  %3 = load ptr, ptr %2, align 8
  %4 = getelementptr inbounds nuw %"struct.std::_Vector_base", ptr %3, i32 0, i32 0
  %5 = getelementptr inbounds nuw %"struct.std::_Vector_base<cmsys::DirectoryInternals::FileData, std::allocator<cmsys::DirectoryInternals::FileData>>::_Vector_impl_data", ptr %4, i32 0, i32 1
  %6 = load ptr, ptr %5, align 8, !tbaa !17
  %7 = getelementptr inbounds nuw %"struct.std::_Vector_base", ptr %3, i32 0, i32 0
  %8 = getelementptr inbounds nuw %"struct.std::_Vector_base<cmsys::DirectoryInternals::FileData, std::allocator<cmsys::DirectoryInternals::FileData>>::_Vector_impl_data", ptr %7, i32 0, i32 0
  %9 = load ptr, ptr %8, align 8, !tbaa !20
  %10 = ptrtoint ptr %6 to i64
  %11 = ptrtoint ptr %9 to i64
  %12 = sub i64 %10, %11
  %13 = sdiv exact i64 %12, 32
  ret i64 %13
}

; Function Attrs: mustprogress nounwind uwtable
define dso_local noundef i64 @_ZNK5cmsys9Directory16GetNumberOfFilesEv(ptr noundef nonnull align 8 dereferenceable(8) %0) #7 align 2 {
  %2 = alloca ptr, align 8
  store ptr %0, ptr %2, align 8, !tbaa !4
  %3 = load ptr, ptr %2, align 8
  %4 = getelementptr inbounds nuw %"class.cmsys::Directory", ptr %3, i32 0, i32 0
  %5 = load ptr, ptr %4, align 8, !tbaa !9
  %6 = getelementptr inbounds nuw %"class.cmsys::DirectoryInternals", ptr %5, i32 0, i32 0
  %7 = call noundef i64 @_ZNKSt6vectorIN5cmsys18DirectoryInternals8FileDataESaIS2_EE4sizeEv(ptr noundef nonnull align 8 dereferenceable(24) %6) #3
  ret i64 %7
}